; Function Attrs: mustprogress nounwind uwtable
define hidden void @_ZN12CallTypeData15post_initializeEP14BytecodeStreamP10MethodData(ptr nocapture noundef nonnull readonly align 8 dereferenceable(48) %0, ptr nocapture noundef readonly %1, ptr nocapture readnone %2) unnamed_addr #2 align 2 {
  %4 = alloca %class.Bytecode_invoke, align 8
  %5 = getelementptr inbounds i8, ptr %1, i64 8
  %6 = getelementptr inbounds i8, ptr %1, i64 24
  %7 = load i32, ptr %6, align 8
  %8 = load ptr, ptr %5, align 8
  %9 = tail call noundef ptr @_ZNK6Method8bcp_fromEi(ptr noundef nonnull align 8 dereferenceable(88) %8, i32 noundef %7) #20
  store ptr %9, ptr %4, align 8
  %10 = load i8, ptr %9, align 1
  %11 = zext i8 %10 to i32
  %.not.i.i.i.i = icmp eq i8 %10, -54
  br i1 %.not.i.i.i.i, label %12, label %_ZN15Bytecode_invokeC2ERK12methodHandlei.exit

12:                                               ; preds = %3
  %13 = tail call noundef i32 @_ZN9Bytecodes22non_breakpoint_code_atEPK6MethodPh(ptr noundef nonnull %8, ptr noundef nonnull %9) #20
  br label %_ZN15Bytecode_invokeC2ERK12methodHandlei.exit

_ZN15Bytecode_invokeC2ERK12methodHandlei.exit:    ; preds = %3, %12
  %14 = phi i32 [ %13, %12 ], [ %11, %3 ]
  %15 = getelementptr inbounds i8, ptr %4, i64 8
  store i32 %14, ptr %15, align 8
  %16 = getelementptr inbounds i8, ptr %4, i64 16
  %17 = load ptr, ptr %5, align 8
  store ptr %17, ptr %16, align 8
  call void @_ZNK15Bytecode_invoke6verifyEv(ptr noundef nonnull align 8 dereferenceable(24) %4) #20
  %18 = getelementptr inbounds i8, ptr %0, i64 8
  %19 = load ptr, ptr %18, align 8
  %20 = getelementptr inbounds i8, ptr %19, i64 16
  %21 = load i64, ptr %20, align 8
  %22 = trunc i64 %21 to i32
  %23 = icmp sgt i32 %22, 1
  br i1 %23, label %24, label %34

24:                                               ; preds = %_ZN15Bytecode_invokeC2ERK12methodHandlei.exit
  %25 = getelementptr inbounds i8, ptr %0, i64 16
  %26 = call noundef ptr @_ZNK19Bytecode_member_ref9signatureEv(ptr noundef nonnull align 8 dereferenceable(24) %4) #20
  %27 = load i32, ptr %15, align 8
  %28 = icmp eq i32 %27, 233
  br i1 %28, label %_ZNK15Bytecode_invoke12has_receiverEv.exit, label %_ZNK15Bytecode_invoke15is_invokestaticEv.exit.i

_ZNK15Bytecode_invoke15is_invokestaticEv.exit.i:  ; preds = %24
  %29 = sext i32 %27 to i64
  %30 = getelementptr inbounds [239 x i32], ptr @_ZN9Bytecodes10_java_codeE, i64 0, i64 %29
  %31 = load i32, ptr %30, align 4
  %32 = and i32 %31, -3
  %spec.select.i = icmp ne i32 %32, 184
  br label %_ZNK15Bytecode_invoke12has_receiverEv.exit

_ZNK15Bytecode_invoke12has_receiverEv.exit:       ; preds = %24, %_ZNK15Bytecode_invoke15is_invokestaticEv.exit.i
  %33 = phi i1 [ true, %24 ], [ %spec.select.i, %_ZNK15Bytecode_invoke15is_invokestaticEv.exit.i ]
  call void @_ZN20TypeStackSlotEntries15post_initializeEP6Symbolbb(ptr noundef nonnull align 8 dereferenceable(16) %25, ptr noundef %26, i1 noundef zeroext %33, i1 noundef zeroext false)
  %.pre = load ptr, ptr %18, align 8
  %.phi.trans.insert = getelementptr inbounds i8, ptr %.pre, i64 16
  %.pre3 = load i64, ptr %.phi.trans.insert, align 8
  br label %34

34:                                               ; preds = %_ZNK15Bytecode_invoke12has_receiverEv.exit, %_ZN15Bytecode_invokeC2ERK12methodHandlei.exit
  %35 = phi i64 [ %.pre3, %_ZNK15Bytecode_invoke12has_receiverEv.exit ], [ %21, %_ZN15Bytecode_invokeC2ERK12methodHandlei.exit ]
  %36 = and i64 %35, 1
  %.not = icmp eq i64 %36, 0
  br i1 %.not, label %47, label %37

37:                                               ; preds = %34
  %38 = getelementptr inbounds i8, ptr %0, i64 32
  %39 = load ptr, ptr %38, align 8
  %40 = getelementptr inbounds i8, ptr %0, i64 40
  %41 = load i32, ptr %40, align 8
  %42 = getelementptr inbounds i8, ptr %39, i64 8
  %43 = load ptr, ptr %42, align 8
  %44 = getelementptr inbounds i8, ptr %43, i64 8
  %45 = sext i32 %41 to i64
  %46 = getelementptr inbounds [1 x i64], ptr %44, i64 0, i64 %45
  store i64 0, ptr %46, align 8
  br label %47

47:                                               ; preds = %37, %34
  ret void
}